; ModuleID = '9/914.c'
source_filename = "9/914.c"
target datalayout = "e-m:e-p270:32:32-p271:32:32-p272:64:64-i64:64-f80:128-n8:16:32:64-S128"
target triple = "x86_64-pc-linux-gnu"

%struct.point = type { [10 x i8], i32 }

@.str = private unnamed_addr constant [3 x i8] c"%d\00", align 1
@.str.1 = private unnamed_addr constant [3 x i8] c"%s\00", align 1
@.str.2 = private unnamed_addr constant [4 x i8] c"%s\0A\00", align 1

; Function Attrs: noinline nounwind uwtable
define dso_local i32 @main() #0 {
  %1 = alloca i32, align 4
  %2 = alloca i32, align 4
  %3 = alloca i32, align 4
  %4 = alloca i32, align 4
  %5 = alloca i32, align 4
  %6 = alloca i32, align 4
  %7 = alloca i32, align 4
  %8 = alloca [10 x i8], align 1
  %9 = alloca [100 x %struct.point], align 16
  %10 = alloca [100 x %struct.point], align 16
  %11 = alloca i32, align 4
  store i32 0, i32* %1, align 4
  store i32 0, i32* %4, align 4
  store i32 0, i32* %6, align 4
  %12 = call i32 (i8*, ...) @__isoc99_scanf(i8* getelementptr inbounds ([3 x i8], [3 x i8]* @.str, i64 0, i64 0), i32* %3)
  store i32 0, i32* %2, align 4
  br label %13

13:                                               ; preds = %28, %0
  %14 = load i32, i32* %2, align 4
  %15 = load i32, i32* %3, align 4
  %16 = icmp slt i32 %14, %15
  br i1 %16, label %17, label %31

17:                                               ; preds = %13
  %18 = load i32, i32* %2, align 4
  %19 = sext i32 %18 to i64
  %20 = getelementptr inbounds [100 x %struct.point], [100 x %struct.point]* %9, i64 0, i64 %19
  %21 = getelementptr inbounds %struct.point, %struct.point* %20, i32 0, i32 0
  %22 = call i32 (i8*, ...) @__isoc99_scanf(i8* getelementptr inbounds ([3 x i8], [3 x i8]* @.str.1, i64 0, i64 0), [10 x i8]* %21)
  %23 = load i32, i32* %2, align 4
  %24 = sext i32 %23 to i64
  %25 = getelementptr inbounds [100 x %struct.point], [100 x %struct.point]* %9, i64 0, i64 %24
  %26 = getelementptr inbounds %struct.point, %struct.point* %25, i32 0, i32 1
  %27 = call i32 (i8*, ...) @__isoc99_scanf(i8* getelementptr inbounds ([3 x i8], [3 x i8]* @.str, i64 0, i64 0), i32* %26)
  br label %28

28:                                               ; preds = %17
  %29 = load i32, i32* %2, align 4
  %30 = add nsw i32 %29, 1
  store i32 %30, i32* %2, align 4
  br label %13

31:                                               ; preds = %13
  store i32 0, i32* %2, align 4
  br label %32

32:                                               ; preds = %47, %31
  %33 = load i32, i32* %2, align 4
  %34 = load i32, i32* %3, align 4
  %35 = icmp slt i32 %33, %34
  br i1 %35, label %36, label %50

36:                                               ; preds = %32
  %37 = load i32, i32* %2, align 4
  %38 = sext i32 %37 to i64
  %39 = getelementptr inbounds [100 x %struct.point], [100 x %struct.point]* %9, i64 0, i64 %38
  %40 = getelementptr inbounds %struct.point, %struct.point* %39, i32 0, i32 1
  %41 = load i32, i32* %40, align 4
  %42 = icmp sge i32 %41, 60
  br i1 %42, label %43, label %46

43:                                               ; preds = %36
  %44 = load i32, i32* %6, align 4
  %45 = add nsw i32 %44, 1
  store i32 %45, i32* %6, align 4
  br label %46

46:                                               ; preds = %43, %36
  br label %47

47:                                               ; preds = %46
  %48 = load i32, i32* %2, align 4
  %49 = add nsw i32 %48, 1
  store i32 %49, i32* %2, align 4
  br label %32

50:                                               ; preds = %32
  %51 = load i32, i32* %6, align 4
  store i32 %51, i32* %11, align 4
  store i32 0, i32* %2, align 4
  br label %52

52:                                               ; preds = %117, %50
  %53 = load i32, i32* %2, align 4
  %54 = load i32, i32* %3, align 4
  %55 = icmp slt i32 %53, %54
  br i1 %55, label %56, label %120

56:                                               ; preds = %52
  %57 = load i32, i32* %2, align 4
  %58 = sext i32 %57 to i64
  %59 = getelementptr inbounds [100 x %struct.point], [100 x %struct.point]* %9, i64 0, i64 %58
  %60 = getelementptr inbounds %struct.point, %struct.point* %59, i32 0, i32 1
  %61 = load i32, i32* %60, align 4
  %62 = icmp sge i32 %61, 60
  br i1 %62, label %63, label %86

63:                                               ; preds = %56
  %64 = load i32, i32* %2, align 4
  %65 = sext i32 %64 to i64
  %66 = getelementptr inbounds [100 x %struct.point], [100 x %struct.point]* %9, i64 0, i64 %65
  %67 = getelementptr inbounds %struct.point, %struct.point* %66, i32 0, i32 1
  %68 = load i32, i32* %67, align 4
  %69 = load i32, i32* %4, align 4
  %70 = sext i32 %69 to i64
  %71 = getelementptr inbounds [100 x %struct.point], [100 x %struct.point]* %10, i64 0, i64 %70
  %72 = getelementptr inbounds %struct.point, %struct.point* %71, i32 0, i32 1
  store i32 %68, i32* %72, align 4
  %73 = load i32, i32* %4, align 4
  %74 = sext i32 %73 to i64
  %75 = getelementptr inbounds [100 x %struct.point], [100 x %struct.point]* %10, i64 0, i64 %74
  %76 = getelementptr inbounds %struct.point, %struct.point* %75, i32 0, i32 0
  %77 = getelementptr inbounds [10 x i8], [10 x i8]* %76, i64 0, i64 0
  %78 = load i32, i32* %2, align 4
  %79 = sext i32 %78 to i64
  %80 = getelementptr inbounds [100 x %struct.point], [100 x %struct.point]* %9, i64 0, i64 %79
  %81 = getelementptr inbounds %struct.point, %struct.point* %80, i32 0, i32 0
  %82 = getelementptr inbounds [10 x i8], [10 x i8]* %81, i64 0, i64 0
  %83 = call i8* @strcpy(i8* %77, i8* %82) #3
  %84 = load i32, i32* %4, align 4
  %85 = add nsw i32 %84, 1
  store i32 %85, i32* %4, align 4
  br label %86

86:                                               ; preds = %63, %56
  %87 = load i32, i32* %2, align 4
  %88 = sext i32 %87 to i64
  %89 = getelementptr inbounds [100 x %struct.point], [100 x %struct.point]* %9, i64 0, i64 %88
  %90 = getelementptr inbounds %struct.point, %struct.point* %89, i32 0, i32 1
  %91 = load i32, i32* %90, align 4
  %92 = icmp slt i32 %91, 60
  br i1 %92, label %93, label %116

93:                                               ; preds = %86
  %94 = load i32, i32* %2, align 4
  %95 = sext i32 %94 to i64
  %96 = getelementptr inbounds [100 x %struct.point], [100 x %struct.point]* %9, i64 0, i64 %95
  %97 = getelementptr inbounds %struct.point, %struct.point* %96, i32 0, i32 1
  %98 = load i32, i32* %97, align 4
  %99 = load i32, i32* %11, align 4
  %100 = sext i32 %99 to i64
  %101 = getelementptr inbounds [100 x %struct.point], [100 x %struct.point]* %10, i64 0, i64 %100
  %102 = getelementptr inbounds %struct.point, %struct.point* %101, i32 0, i32 1
  store i32 %98, i32* %102, align 4
  %103 = load i32, i32* %11, align 4
  %104 = sext i32 %103 to i64
  %105 = getelementptr inbounds [100 x %struct.point], [100 x %struct.point]* %10, i64 0, i64 %104
  %106 = getelementptr inbounds %struct.point, %struct.point* %105, i32 0, i32 0
  %107 = getelementptr inbounds [10 x i8], [10 x i8]* %106, i64 0, i64 0
  %108 = load i32, i32* %2, align 4
  %109 = sext i32 %108 to i64
  %110 = getelementptr inbounds [100 x %struct.point], [100 x %struct.point]* %9, i64 0, i64 %109
  %111 = getelementptr inbounds %struct.point, %struct.point* %110, i32 0, i32 0
  %112 = getelementptr inbounds [10 x i8], [10 x i8]* %111, i64 0, i64 0
  %113 = call i8* @strcpy(i8* %107, i8* %112) #3
  %114 = load i32, i32* %11, align 4
  %115 = add nsw i32 %114, 1
  store i32 %115, i32* %11, align 4
  br label %116

116:                                              ; preds = %93, %86
  br label %117

117:                                              ; preds = %116
  %118 = load i32, i32* %2, align 4
  %119 = add nsw i32 %118, 1
  store i32 %119, i32* %2, align 4
  br label %52

120:                                              ; preds = %52
  store i32 0, i32* %2, align 4
  br label %121

121:                                              ; preds = %200, %120
  %122 = load i32, i32* %2, align 4
  %123 = load i32, i32* %6, align 4
  %124 = icmp slt i32 %122, %123
  br i1 %124, label %125, label %203

125:                                              ; preds = %121
  store i32 0, i32* %7, align 4
  br label %126

126:                                              ; preds = %196, %125
  %127 = load i32, i32* %7, align 4
  %128 = load i32, i32* %6, align 4
  %129 = load i32, i32* %2, align 4
  %130 = sub nsw i32 %128, %129
  %131 = sub nsw i32 %130, 1
  %132 = icmp slt i32 %127, %131
  br i1 %132, label %133, label %199

133:                                              ; preds = %126
  %134 = load i32, i32* %7, align 4
  %135 = sext i32 %134 to i64
  %136 = getelementptr inbounds [100 x %struct.point], [100 x %struct.point]* %10, i64 0, i64 %135
  %137 = getelementptr inbounds %struct.point, %struct.point* %136, i32 0, i32 1
  %138 = load i32, i32* %137, align 4
  %139 = load i32, i32* %7, align 4
  %140 = add nsw i32 %139, 1
  %141 = sext i32 %140 to i64
  %142 = getelementptr inbounds [100 x %struct.point], [100 x %struct.point]* %10, i64 0, i64 %141
  %143 = getelementptr inbounds %struct.point, %struct.point* %142, i32 0, i32 1
  %144 = load i32, i32* %143, align 4
  %145 = icmp slt i32 %138, %144
  br i1 %145, label %146, label %195

146:                                              ; preds = %133
  %147 = load i32, i32* %7, align 4
  %148 = sext i32 %147 to i64
  %149 = getelementptr inbounds [100 x %struct.point], [100 x %struct.point]* %10, i64 0, i64 %148
  %150 = getelementptr inbounds %struct.point, %struct.point* %149, i32 0, i32 1
  %151 = load i32, i32* %150, align 4
  store i32 %151, i32* %5, align 4
  %152 = load i32, i32* %7, align 4
  %153 = add nsw i32 %152, 1
  %154 = sext i32 %153 to i64
  %155 = getelementptr inbounds [100 x %struct.point], [100 x %struct.point]* %10, i64 0, i64 %154
  %156 = getelementptr inbounds %struct.point, %struct.point* %155, i32 0, i32 1
  %157 = load i32, i32* %156, align 4
  %158 = load i32, i32* %7, align 4
  %159 = sext i32 %158 to i64
  %160 = getelementptr inbounds [100 x %struct.point], [100 x %struct.point]* %10, i64 0, i64 %159
  %161 = getelementptr inbounds %struct.point, %struct.point* %160, i32 0, i32 1
  store i32 %157, i32* %161, align 4
  %162 = load i32, i32* %5, align 4
  %163 = load i32, i32* %7, align 4
  %164 = add nsw i32 %163, 1
  %165 = sext i32 %164 to i64
  %166 = getelementptr inbounds [100 x %struct.point], [100 x %struct.point]* %10, i64 0, i64 %165
  %167 = getelementptr inbounds %struct.point, %struct.point* %166, i32 0, i32 1
  store i32 %162, i32* %167, align 4
  %168 = getelementptr inbounds [10 x i8], [10 x i8]* %8, i64 0, i64 0
  %169 = load i32, i32* %7, align 4
  %170 = add nsw i32 %169, 1
  %171 = sext i32 %170 to i64
  %172 = getelementptr inbounds [100 x %struct.point], [100 x %struct.point]* %10, i64 0, i64 %171
  %173 = getelementptr inbounds %struct.point, %struct.point* %172, i32 0, i32 0
  %174 = getelementptr inbounds [10 x i8], [10 x i8]* %173, i64 0, i64 0
  %175 = call i8* @strcpy(i8* %168, i8* %174) #3
  %176 = load i32, i32* %7, align 4
  %177 = add nsw i32 %176, 1
  %178 = sext i32 %177 to i64
  %179 = getelementptr inbounds [100 x %struct.point], [100 x %struct.point]* %10, i64 0, i64 %178
  %180 = getelementptr inbounds %struct.point, %struct.point* %179, i32 0, i32 0
  %181 = getelementptr inbounds [10 x i8], [10 x i8]* %180, i64 0, i64 0
  %182 = load i32, i32* %7, align 4
  %183 = sext i32 %182 to i64
  %184 = getelementptr inbounds [100 x %struct.point], [100 x %struct.point]* %10, i64 0, i64 %183
  %185 = getelementptr inbounds %struct.point, %struct.point* %184, i32 0, i32 0
  %186 = getelementptr inbounds [10 x i8], [10 x i8]* %185, i64 0, i64 0
  %187 = call i8* @strcpy(i8* %181, i8* %186) #3
  %188 = load i32, i32* %7, align 4
  %189 = sext i32 %188 to i64
  %190 = getelementptr inbounds [100 x %struct.point], [100 x %struct.point]* %10, i64 0, i64 %189
  %191 = getelementptr inbounds %struct.point, %struct.point* %190, i32 0, i32 0
  %192 = getelementptr inbounds [10 x i8], [10 x i8]* %191, i64 0, i64 0
  %193 = getelementptr inbounds [10 x i8], [10 x i8]* %8, i64 0, i64 0
  %194 = call i8* @strcpy(i8* %192, i8* %193) #3
  br label %195

195:                                              ; preds = %146, %133
  br label %196

196:                                              ; preds = %195
  %197 = load i32, i32* %7, align 4
  %198 = add nsw i32 %197, 1
  store i32 %198, i32* %7, align 4
  br label %126

199:                                              ; preds = %126
  br label %200

200:                                              ; preds = %199
  %201 = load i32, i32* %2, align 4
  %202 = add nsw i32 %201, 1
  store i32 %202, i32* %2, align 4
  br label %121

203:                                              ; preds = %121
  store i32 0, i32* %2, align 4
  br label %204

204:                                              ; preds = %215, %203
  %205 = load i32, i32* %2, align 4
  %206 = load i32, i32* %3, align 4
  %207 = icmp slt i32 %205, %206
  br i1 %207, label %208, label %218

208:                                              ; preds = %204
  %209 = load i32, i32* %2, align 4
  %210 = sext i32 %209 to i64
  %211 = getelementptr inbounds [100 x %struct.point], [100 x %struct.point]* %10, i64 0, i64 %210
  %212 = getelementptr inbounds %struct.point, %struct.point* %211, i32 0, i32 0
  %213 = getelementptr inbounds [10 x i8], [10 x i8]* %212, i64 0, i64 0
  %214 = call i32 (i8*, ...) @printf(i8* getelementptr inbounds ([4 x i8], [4 x i8]* @.str.2, i64 0, i64 0), i8* %213)
  br label %215

215:                                              ; preds = %208
  %216 = load i32, i32* %2, align 4
  %217 = add nsw i32 %216, 1
  store i32 %217, i32* %2, align 4
  br label %204

218:                                              ; preds = %204
  ret i32 0
}

declare dso_local i32 @__isoc99_scanf(i8*, ...) #1

; Function Attrs: nounwind
declare dso_local i8* @strcpy(i8*, i8*) #2

declare dso_local i32 @printf(i8*, ...) #1


!llvm.module.flags = !{!0}
!llvm.ident = !{!1}

!0 = !{i32 1, !"wchar_size", i32 4}
!1 = !{!"clang version 10.0.0-4ubuntu1 "}
